; Function Attrs: mustprogress nounwind uwtable
define internal void @"_ZNSt17_Function_handlerIFvPN4llvm11InstructionEEZNS0_19lowerObjectSizeCallEPNS0_13IntrinsicInstERKNS0_10DataLayoutEPKNS0_17TargetLibraryInfoEPNS0_9AAResultsEbPNS0_15SmallVectorImplIS2_EEE3$_0E9_M_invokeERKSt9_Any_dataOS2_"(ptr nocapture noundef nonnull readonly align 8 dereferenceable(16) %0, ptr nocapture noundef nonnull readonly align 8 dereferenceable(8) %1) #0 align 2 {
  %.val = load ptr, ptr %0, align 8
  %.val2 = load ptr, ptr %1, align 8
  %.val.val = load ptr, ptr %.val, align 8
  %.not.i.i.i = icmp eq ptr %.val.val, null
  br i1 %.not.i.i.i, label %"_ZSt10__invoke_rIvRZN4llvm19lowerObjectSizeCallEPNS0_13IntrinsicInstERKNS0_10DataLayoutEPKNS0_17TargetLibraryInfoEPNS0_9AAResultsEbPNS0_15SmallVectorImplIPNS0_11InstructionEEEE3$_0JSD_EENSt9enable_ifIX16is_invocable_r_vIT_T0_DpT1_EESJ_E4typeEOSK_DpOSL_.exit", label %3

3:                                                ; preds = %2
  %4 = tail call noundef i64 @_ZNK4llvm15SmallVectorBaseIjE4sizeEv(ptr noundef nonnull align 8 dereferenceable(16) %.val.val) #20
  %5 = add i64 %4, 1
  %6 = tail call noundef i64 @_ZNK4llvm15SmallVectorBaseIjE8capacityEv(ptr noundef nonnull align 8 dereferenceable(16) %.val.val) #20
  %.not.i.i.i.i.i.i = icmp ugt i64 %5, %6
  br i1 %.not.i.i.i.i.i.i, label %7, label %_ZN4llvm23SmallVectorTemplateBaseIPNS_11InstructionELb1EE9push_backES2_.exit.i.i.i

7:                                                ; preds = %3
  %8 = getelementptr inbounds i8, ptr %.val.val, i64 16
  tail call void @_ZN4llvm15SmallVectorBaseIjE8grow_podEPvmm(ptr noundef nonnull align 8 dereferenceable(16) %.val.val, ptr noundef nonnull %8, i64 noundef %5, i64 noundef 8) #20
  br label %_ZN4llvm23SmallVectorTemplateBaseIPNS_11InstructionELb1EE9push_backES2_.exit.i.i.i

_ZN4llvm23SmallVectorTemplateBaseIPNS_11InstructionELb1EE9push_backES2_.exit.i.i.i: ; preds = %7, %3
  %9 = load ptr, ptr %.val.val, align 8
  %10 = tail call noundef i64 @_ZNK4llvm15SmallVectorBaseIjE4sizeEv(ptr noundef nonnull align 8 dereferenceable(16) %.val.val) #20
  %11 = getelementptr inbounds ptr, ptr %9, i64 %10
  %12 = ptrtoint ptr %.val2 to i64
  store i64 %12, ptr %11, align 1
  %13 = tail call noundef i64 @_ZNK4llvm15SmallVectorBaseIjE4sizeEv(ptr noundef nonnull align 8 dereferenceable(16) %.val.val) #20
  %14 = add i64 %13, 1
  tail call void @_ZN4llvm15SmallVectorBaseIjE8set_sizeEm(ptr noundef nonnull align 8 dereferenceable(16) %.val.val, i64 noundef %14) #20
  br label %"_ZSt10__invoke_rIvRZN4llvm19lowerObjectSizeCallEPNS0_13IntrinsicInstERKNS0_10DataLayoutEPKNS0_17TargetLibraryInfoEPNS0_9AAResultsEbPNS0_15SmallVectorImplIPNS0_11InstructionEEEE3$_0JSD_EENSt9enable_ifIX16is_invocable_r_vIT_T0_DpT1_EESJ_E4typeEOSK_DpOSL_.exit"

"_ZSt10__invoke_rIvRZN4llvm19lowerObjectSizeCallEPNS0_13IntrinsicInstERKNS0_10DataLayoutEPKNS0_17TargetLibraryInfoEPNS0_9AAResultsEbPNS0_15SmallVectorImplIPNS0_11InstructionEEEE3$_0JSD_EENSt9enable_ifIX16is_invocable_r_vIT_T0_DpT1_EESJ_E4typeEOSK_DpOSL_.exit": ; preds = %2, %_ZN4llvm23SmallVectorTemplateBaseIPNS_11InstructionELb1EE9push_backES2_.exit.i.i.i
  ret void
}